target datalayout = "e-m:e-p270:32:32-p271:32:32-p272:64:64-i64:64-i128:128-f80:128-n8:16:32:64-S128"
target triple = "x86_64-pc-linux-gnu"

%struct._zend_accel_globals = type { i8, i8, i8, i8, i8, %struct._zend_accel_directives, ptr, ptr, [32 x i8], [32 x i8], i32, i8, i32, i8, i32, i64, i64, %struct._zend_array, i64, ptr, ptr, ptr, ptr, ptr }
%struct._zend_accel_directives = type { i64, i64, double, ptr, i64, i8, i8, i8, i8, i8, i8, i8, i8, i8, i8, i8, i64, i64, ptr, ptr, i64, i64, i64, i64, i64, ptr, ptr, ptr, i8, i8, i8, i8, ptr, ptr }
%struct._zend_array = type { %struct._zend_refcounted_h, %union.anon.0, i32, %union.anon.1, i32, i32, i32, i32, i64, ptr }
%struct._zend_refcounted_h = type { i32, %union.anon }
%union.anon = type { i32 }
%union.anon.0 = type { i32 }
%union.anon.1 = type { ptr }
%struct._zend_op_array = type { i8, [3 x i8], i32, ptr, ptr, ptr, i32, i32, ptr, ptr, ptr, ptr, i32, ptr, i32, i32, i32, ptr, ptr, ptr, ptr, ptr, i32, i32, ptr, ptr, ptr, i32, i32, i32, i32, ptr, ptr, [6 x ptr] }
%struct._zend_persistent_script = type { %struct._zend_script, i64, i32, i64, i8, i8, i8, i32, i32, ptr, ptr, ptr, i64, %struct.zend_persistent_script_dynamic_members }
%struct._zend_script = type { ptr, %struct._zend_op_array, %struct._zend_array, %struct._zend_array }
%struct.zend_persistent_script_dynamic_members = type { i64, i64, i32, i64 }

@accel_globals = hidden global %struct._zend_accel_globals zeroinitializer, align 8

; Function Attrs: nounwind uwtable
define hidden i32 @validate_timestamp_and_record(ptr noundef %0, ptr noundef %1) #0 {
  %3 = alloca i32, align 4
  %4 = alloca ptr, align 8
  %5 = alloca ptr, align 8
  store ptr %0, ptr %4, align 8, !tbaa !136
  store ptr %1, ptr %5, align 8, !tbaa !69
  %6 = load ptr, ptr %4, align 8, !tbaa !136
  %7 = getelementptr inbounds nuw %struct._zend_persistent_script, ptr %6, i32 0, i32 3
  %8 = load i64, ptr %7, align 8, !tbaa !137
  %9 = icmp eq i64 %8, 0
  br i1 %9, label %10, label %11

10:                                               ; preds = %2
  store i32 0, ptr %3, align 4
  br label %35

11:                                               ; preds = %2
  %12 = load i64, ptr getelementptr inbounds nuw (%struct._zend_accel_directives, ptr getelementptr inbounds nuw (%struct._zend_accel_globals, ptr @accel_globals, i32 0, i32 5), i32 0, i32 16), align 8, !tbaa !150
  %13 = icmp ne i64 %12, 0
  br i1 %13, label %14, label %22

14:                                               ; preds = %11
  %15 = load ptr, ptr %4, align 8, !tbaa !136
  %16 = getelementptr inbounds nuw %struct._zend_persistent_script, ptr %15, i32 0, i32 13
  %17 = getelementptr inbounds nuw %struct.zend_persistent_script_dynamic_members, ptr %16, i32 0, i32 3
  %18 = load i64, ptr %17, align 8, !tbaa !151
  %19 = load i64, ptr getelementptr inbounds nuw (%struct._zend_accel_globals, ptr @accel_globals, i32 0, i32 15), align 8, !tbaa !152
  %20 = icmp sge i64 %18, %19
  br i1 %20, label %21, label %22

21:                                               ; preds = %14
  store i32 0, ptr %3, align 4
  br label %35

22:                                               ; preds = %14, %11
  %23 = load ptr, ptr %4, align 8, !tbaa !136
  %24 = load ptr, ptr %5, align 8, !tbaa !69
  %25 = call i32 @do_validate_timestamps(ptr noundef %23, ptr noundef %24)
  %26 = icmp eq i32 %25, -1
  br i1 %26, label %27, label %28

27:                                               ; preds = %22
  store i32 -1, ptr %3, align 4
  br label %35

28:                                               ; preds = %22
  %29 = load i64, ptr getelementptr inbounds nuw (%struct._zend_accel_globals, ptr @accel_globals, i32 0, i32 15), align 8, !tbaa !152
  %30 = load i64, ptr getelementptr inbounds nuw (%struct._zend_accel_directives, ptr getelementptr inbounds nuw (%struct._zend_accel_globals, ptr @accel_globals, i32 0, i32 5), i32 0, i32 16), align 8, !tbaa !150
  %31 = add i64 %29, %30
  %32 = load ptr, ptr %4, align 8, !tbaa !136
  %33 = getelementptr inbounds nuw %struct._zend_persistent_script, ptr %32, i32 0, i32 13
  %34 = getelementptr inbounds nuw %struct.zend_persistent_script_dynamic_members, ptr %33, i32 0, i32 3
  store i64 %31, ptr %34, align 8, !tbaa !151
  store i32 0, ptr %3, align 4
  br label %35

35:                                               ; preds = %28, %27, %21, %10
  %36 = load i32, ptr %3, align 4
  ret i32 %36
}

; Function Attrs: nounwind uwtable
define hidden i32 @validate_timestamp_and_record_ex(ptr noundef %0, ptr noundef %1) #0 {
  %3 = alloca ptr, align 8
  %4 = alloca ptr, align 8
  %5 = alloca i32, align 4
  store ptr %0, ptr %3, align 8, !tbaa !136
  store ptr %1, ptr %4, align 8, !tbaa !69
  br label %6

6:                                                ; preds = %2
  %7 = load i8, ptr getelementptr inbounds nuw (%struct._zend_accel_directives, ptr getelementptr inbounds nuw (%struct._zend_accel_globals, ptr @accel_globals, i32 0, i32 5), i32 0, i32 11), align 2, !tbaa !45, !range !38, !noundef !39
  %8 = trunc i8 %7 to i1
  br i1 %8, label %9, label %10

9:                                                ; preds = %6
  call void @zend_accel_shared_protect(i1 noundef zeroext false)
  br label %10

10:                                               ; preds = %9, %6
  br label %11

11:                                               ; preds = %10
  call void @llvm.lifetime.start.p0(i64 4, ptr %5) #19
  %12 = load ptr, ptr %3, align 8, !tbaa !136
  %13 = load ptr, ptr %4, align 8, !tbaa !69
  %14 = call i32 @validate_timestamp_and_record(ptr noundef %12, ptr noundef %13)
  store i32 %14, ptr %5, align 4, !tbaa !4
  br label %15

15:                                               ; preds = %11
  %16 = load i8, ptr getelementptr inbounds nuw (%struct._zend_accel_directives, ptr getelementptr inbounds nuw (%struct._zend_accel_globals, ptr @accel_globals, i32 0, i32 5), i32 0, i32 11), align 2, !tbaa !45, !range !38, !noundef !39
  %17 = trunc i8 %16 to i1
  br i1 %17, label %18, label %19

18:                                               ; preds = %15
  call void @zend_accel_shared_protect(i1 noundef zeroext true)
  br label %19

19:                                               ; preds = %18, %15
  br label %20

20:                                               ; preds = %19
  br label %21

21:                                               ; preds = %20
  %22 = load i32, ptr %5, align 4, !tbaa !4
  call void @llvm.lifetime.end.p0(i64 4, ptr %5) #19
  ret i32 %22
}