; Function Attrs: nounwind uwtable
define hidden range(i32 -1, 1) i32 @validate_timestamp_and_record_ex(ptr noundef captures(none) %0, ptr noundef captures(none) %1) local_unnamed_addr #0 {
  %3 = load i8, ptr getelementptr inbounds nuw (i8, ptr @accel_globals, i64 54), align 2, !tbaa !45, !range !37, !noundef !38
  %4 = trunc nuw i8 %3 to i1
  br i1 %4, label %5, label %6

5:                                                ; preds = %2
  tail call void @zend_accel_shared_protect(i1 noundef zeroext false) #26
  br label %6

6:                                                ; preds = %2, %5
  %7 = getelementptr inbounds nuw i8, ptr %0, i64 392
  %8 = load i64, ptr %7, align 8, !tbaa !124
  %9 = icmp eq i64 %8, 0
  br i1 %9, label %validate_timestamp_and_record.exit, label %10

10:                                               ; preds = %6
  %11 = load i64, ptr getelementptr inbounds nuw (i8, ptr @accel_globals, i64 64), align 8, !tbaa !138
  %.not.i = icmp eq i64 %11, 0
  br i1 %.not.i, label %16, label %12

12:                                               ; preds = %10
  %13 = getelementptr inbounds nuw i8, ptr %0, i64 472
  %14 = load i64, ptr %13, align 8, !tbaa !139
  %15 = load i64, ptr getelementptr inbounds nuw (i8, ptr @accel_globals, i64 288), align 8, !tbaa !140
  %.not5.i = icmp slt i64 %14, %15
  br i1 %.not5.i, label %16, label %validate_timestamp_and_record.exit

16:                                               ; preds = %12, %10
  %17 = tail call fastcc i32 @do_validate_timestamps(ptr noundef nonnull %0, ptr noundef %1)
  %18 = icmp eq i32 %17, -1
  br i1 %18, label %validate_timestamp_and_record.exit, label %19

19:                                               ; preds = %16
  %20 = load i64, ptr getelementptr inbounds nuw (i8, ptr @accel_globals, i64 288), align 8, !tbaa !140
  %21 = load i64, ptr getelementptr inbounds nuw (i8, ptr @accel_globals, i64 64), align 8, !tbaa !138
  %22 = add i64 %21, %20
  %23 = getelementptr inbounds nuw i8, ptr %0, i64 472
  store i64 %22, ptr %23, align 8, !tbaa !139
  br label %validate_timestamp_and_record.exit

validate_timestamp_and_record.exit:               ; preds = %6, %12, %16, %19
  %.0.i = phi i32 [ 0, %19 ], [ 0, %6 ], [ 0, %12 ], [ -1, %16 ]
  %24 = load i8, ptr getelementptr inbounds nuw (i8, ptr @accel_globals, i64 54), align 2, !tbaa !45, !range !37, !noundef !38
  %25 = trunc nuw i8 %24 to i1
  br i1 %25, label %26, label %27

26:                                               ; preds = %validate_timestamp_and_record.exit
  tail call void @zend_accel_shared_protect(i1 noundef zeroext true) #26
  br label %27

27:                                               ; preds = %26, %validate_timestamp_and_record.exit
  ret i32 %.0.i
}